ARM GAS  C:\Users\aashi\AppData\Local\Temp\cceVs3mG.s 			page 1


   1              		.syntax unified
   2              		.cpu cortex-m3
   3              		.fpu softvfp
   4              		.eabi_attribute 20, 1
   5              		.eabi_attribute 21, 1
   6              		.eabi_attribute 23, 3
   7              		.eabi_attribute 24, 1
   8              		.eabi_attribute 25, 1
   9              		.eabi_attribute 26, 1
  10              		.eabi_attribute 30, 1
  11              		.eabi_attribute 34, 1
  12              		.eabi_attribute 18, 4
  13              		.thumb
  14              		.syntax unified
  15              		.file	"main.c"
  16              		.text
  17              	.Ltext0:
  18              		.cfi_sections	.debug_frame
  19              		.section	.text.SAMPLE_ISR,"ax",%progbits
  20              		.align	2
  21              		.global	SAMPLE_ISR
  22              		.thumb
  23              		.thumb_func
  24              		.type	SAMPLE_ISR, %function
  25              	SAMPLE_ISR:
  26              	.LFB64:
  27              		.file 1 "main.c"
   1:main.c        **** #include <project.h>
   2:main.c        **** #include "stdio.h"
   3:main.c        **** #include <string.h>
   4:main.c        **** #include <stdlib.h> //atoi
   5:main.c        **** 
   6:main.c        **** /* Project Defines */
   7:main.c        **** #define FALSE  0
   8:main.c        **** #define TRUE   1
   9:main.c        **** #define TRANSMIT_BUFFER_SIZE  16
  10:main.c        **** 
  11:main.c        **** /* Flags used to store transmit data commands */
  12:main.c        **** uint8 ContinuouslySendData = FALSE;
  13:main.c        **** uint8 SendSingleByte = FALSE;
  14:main.c        **** uint8 clenchGesture = FALSE;
  15:main.c        **** uint8 neutralGesture = FALSE;
  16:main.c        **** uint8 spideyGesture = FALSE;
  17:main.c        **** uint8 sigGesture = FALSE;
  18:main.c        **** uint ms_count = 0;
  19:main.c        **** 
  20:main.c        **** 
  21:main.c        **** CY_ISR(SAMPLE_ISR){       
  28              		.loc 1 21 0
  29              		.cfi_startproc
  30              		@ args = 0, pretend = 0, frame = 0
  31              		@ frame_needed = 0, uses_anonymous_args = 0
  32 0000 08B5     		push	{r3, lr}
  33              		.cfi_def_cfa_offset 8
  34              		.cfi_offset 3, -8
  35              		.cfi_offset 14, -4
  22:main.c        ****     if(ContinuouslySendData == TRUE) { // 5 seconds
ARM GAS  C:\Users\aashi\AppData\Local\Temp\cceVs3mG.s 			page 2


  36              		.loc 1 22 0
  37 0002 0B4B     		ldr	r3, .L4
  38 0004 1B78     		ldrb	r3, [r3]	@ zero_extendqisi2
  39 0006 012B     		cmp	r3, #1
  40 0008 11D1     		bne	.L1
  23:main.c        ****         ms_count++;
  41              		.loc 1 23 0
  42 000a 094A     		ldr	r2, .L4
  43 000c 5368     		ldr	r3, [r2, #4]
  44 000e 0133     		adds	r3, r3, #1
  45 0010 5360     		str	r3, [r2, #4]
  24:main.c        ****         if (ms_count == 5000){
  46              		.loc 1 24 0
  47 0012 41F28832 		movw	r2, #5000
  48 0016 9342     		cmp	r3, r2
  49 0018 09D1     		bne	.L1
  25:main.c        ****         ContinuouslySendData = FALSE;
  50              		.loc 1 25 0
  51 001a 054B     		ldr	r3, .L4
  52 001c 0022     		movs	r2, #0
  53 001e 1A70     		strb	r2, [r3]
  26:main.c        ****         ms_count = 0; // reset ms counter
  54              		.loc 1 26 0
  55 0020 5A60     		str	r2, [r3, #4]
  27:main.c        ****         CyDelay(100);
  56              		.loc 1 27 0
  57 0022 6420     		movs	r0, #100
  58 0024 FFF7FEFF 		bl	CyDelay
  59              	.LVL0:
  28:main.c        ****         UART_1_PutString("INTERRUPT\r\n");
  60              		.loc 1 28 0
  61 0028 0248     		ldr	r0, .L4+4
  62 002a FFF7FEFF 		bl	UART_1_PutString
  63              	.LVL1:
  64              	.L1:
  65 002e 08BD     		pop	{r3, pc}
  66              	.L5:
  67              		.align	2
  68              	.L4:
  69 0030 00000000 		.word	.LANCHOR0
  70 0034 00000000 		.word	.LC0
  71              		.cfi_endproc
  72              	.LFE64:
  73              		.size	SAMPLE_ISR, .-SAMPLE_ISR
  74              		.section	.text.VERIFY_ISR,"ax",%progbits
  75              		.align	2
  76              		.global	VERIFY_ISR
  77              		.thumb
  78              		.thumb_func
  79              		.type	VERIFY_ISR, %function
  80              	VERIFY_ISR:
  81              	.LFB65:
  29:main.c        ****         }
  30:main.c        ****     }
  31:main.c        **** }
  32:main.c        **** 
  33:main.c        **** CY_ISR(VERIFY_ISR){ 
ARM GAS  C:\Users\aashi\AppData\Local\Temp\cceVs3mG.s 			page 3


  82              		.loc 1 33 0
  83              		.cfi_startproc
  84              		@ args = 0, pretend = 0, frame = 0
  85              		@ frame_needed = 0, uses_anonymous_args = 0
  86 0000 08B5     		push	{r3, lr}
  87              		.cfi_def_cfa_offset 8
  88              		.cfi_offset 3, -8
  89              		.cfi_offset 14, -4
  90              	.LVL2:
  34:main.c        ****     
  35:main.c        ****     uint8 userInput = '\0';
  36:main.c        ****     
  37:main.c        ****     if (sigGesture == TRUE){
  91              		.loc 1 37 0
  92 0002 1C4B     		ldr	r3, .L16
  93 0004 1B7A     		ldrb	r3, [r3, #8]	@ zero_extendqisi2
  94 0006 012B     		cmp	r3, #1
  95 0008 33D1     		bne	.L6
  38:main.c        ****         UART_1_PutString("HITL VERIFY\r\n");
  96              		.loc 1 38 0
  97 000a 1B48     		ldr	r0, .L16+4
  98 000c FFF7FEFF 		bl	UART_1_PutString
  99              	.LVL3:
  35:main.c        ****     
 100              		.loc 1 35 0
 101 0010 0020     		movs	r0, #0
  39:main.c        ****         while (userInput == '\0'){
 102              		.loc 1 39 0
 103 0012 29E0     		b	.L8
 104              	.LVL4:
 105              	.L14:
  40:main.c        ****             userInput = UART_1_GetChar();
 106              		.loc 1 40 0
 107 0014 FFF7FEFF 		bl	UART_1_GetChar
 108              	.LVL5:
  41:main.c        ****             
  42:main.c        ****             switch(userInput)
 109              		.loc 1 42 0
 110 0018 A0F14103 		sub	r3, r0, #65
 111 001c 2D2B     		cmp	r3, #45
 112 001e 23D8     		bhi	.L8
 113 0020 DFE803F0 		tbb	[pc, r3]
 114              	.L11:
 115 0024 17       		.byte	(.L10-.L11)/2
 116 0025 1B       		.byte	(.L12-.L11)/2
 117 0026 22       		.byte	(.L8-.L11)/2
 118 0027 22       		.byte	(.L8-.L11)/2
 119 0028 22       		.byte	(.L8-.L11)/2
 120 0029 22       		.byte	(.L8-.L11)/2
 121 002a 22       		.byte	(.L8-.L11)/2
 122 002b 22       		.byte	(.L8-.L11)/2
 123 002c 22       		.byte	(.L8-.L11)/2
 124 002d 22       		.byte	(.L8-.L11)/2
 125 002e 22       		.byte	(.L8-.L11)/2
 126 002f 22       		.byte	(.L8-.L11)/2
 127 0030 22       		.byte	(.L8-.L11)/2
 128 0031 1F       		.byte	(.L13-.L11)/2
ARM GAS  C:\Users\aashi\AppData\Local\Temp\cceVs3mG.s 			page 4


 129 0032 22       		.byte	(.L8-.L11)/2
 130 0033 22       		.byte	(.L8-.L11)/2
 131 0034 22       		.byte	(.L8-.L11)/2
 132 0035 22       		.byte	(.L8-.L11)/2
 133 0036 22       		.byte	(.L8-.L11)/2
 134 0037 22       		.byte	(.L8-.L11)/2
 135 0038 22       		.byte	(.L8-.L11)/2
 136 0039 22       		.byte	(.L8-.L11)/2
 137 003a 22       		.byte	(.L8-.L11)/2
 138 003b 22       		.byte	(.L8-.L11)/2
 139 003c 22       		.byte	(.L8-.L11)/2
 140 003d 22       		.byte	(.L8-.L11)/2
 141 003e 22       		.byte	(.L8-.L11)/2
 142 003f 22       		.byte	(.L8-.L11)/2
 143 0040 22       		.byte	(.L8-.L11)/2
 144 0041 22       		.byte	(.L8-.L11)/2
 145 0042 22       		.byte	(.L8-.L11)/2
 146 0043 22       		.byte	(.L8-.L11)/2
 147 0044 17       		.byte	(.L10-.L11)/2
 148 0045 1B       		.byte	(.L12-.L11)/2
 149 0046 22       		.byte	(.L8-.L11)/2
 150 0047 22       		.byte	(.L8-.L11)/2
 151 0048 22       		.byte	(.L8-.L11)/2
 152 0049 22       		.byte	(.L8-.L11)/2
 153 004a 22       		.byte	(.L8-.L11)/2
 154 004b 22       		.byte	(.L8-.L11)/2
 155 004c 22       		.byte	(.L8-.L11)/2
 156 004d 22       		.byte	(.L8-.L11)/2
 157 004e 22       		.byte	(.L8-.L11)/2
 158 004f 22       		.byte	(.L8-.L11)/2
 159 0050 22       		.byte	(.L8-.L11)/2
 160 0051 1F       		.byte	(.L13-.L11)/2
 161              		.p2align 1
 162              	.L10:
  43:main.c        ****             {
  44:main.c        ****                 case 0:
  45:main.c        ****                     /* No new data was recieved */
  46:main.c        ****                     break;
  47:main.c        ****                 case 'A':
  48:main.c        ****                 case 'a': //clench sequence
  49:main.c        ****                     clenchGesture = TRUE;
 163              		.loc 1 49 0
 164 0052 0122     		movs	r2, #1
 165 0054 074B     		ldr	r3, .L16
 166 0056 5A72     		strb	r2, [r3, #9]
  50:main.c        ****                     break;
 167              		.loc 1 50 0
 168 0058 06E0     		b	.L8
 169              	.L12:
  51:main.c        ****                 case 'B': //spidey sequence
  52:main.c        ****                 case 'b':
  53:main.c        ****                     spideyGesture = TRUE;
 170              		.loc 1 53 0
 171 005a 0122     		movs	r2, #1
 172 005c 054B     		ldr	r3, .L16
 173 005e 9A72     		strb	r2, [r3, #10]
  54:main.c        ****                     break;
ARM GAS  C:\Users\aashi\AppData\Local\Temp\cceVs3mG.s 			page 5


 174              		.loc 1 54 0
 175 0060 02E0     		b	.L8
 176              	.L13:
  55:main.c        ****                 case 'N': //neutral sequence
  56:main.c        ****                 case 'n':
  57:main.c        ****                     neutralGesture = TRUE;
 177              		.loc 1 57 0
 178 0062 0122     		movs	r2, #1
 179 0064 034B     		ldr	r3, .L16
 180 0066 DA72     		strb	r2, [r3, #11]
 181              	.LVL6:
 182              	.L8:
  39:main.c        ****             userInput = UART_1_GetChar();
 183              		.loc 1 39 0
 184 0068 0028     		cmp	r0, #0
 185 006a D3D0     		beq	.L14
  58:main.c        ****                     break;
  59:main.c        ****                 default:
  60:main.c        ****                     /* Place error handling code here */
  61:main.c        ****                     break;    
  62:main.c        ****             }
  63:main.c        ****         }
  64:main.c        ****         sigGesture = FALSE;
 186              		.loc 1 64 0
 187 006c 0022     		movs	r2, #0
 188 006e 014B     		ldr	r3, .L16
 189 0070 1A72     		strb	r2, [r3, #8]
 190              	.LVL7:
 191              	.L6:
 192 0072 08BD     		pop	{r3, pc}
 193              	.L17:
 194              		.align	2
 195              	.L16:
 196 0074 00000000 		.word	.LANCHOR0
 197 0078 0C000000 		.word	.LC1
 198              		.cfi_endproc
 199              	.LFE65:
 200              		.size	VERIFY_ISR, .-VERIFY_ISR
 201              		.section	.text.main,"ax",%progbits
 202              		.align	2
 203              		.global	main
 204              		.thumb
 205              		.thumb_func
 206              		.type	main, %function
 207              	main:
 208              	.LFB66:
  65:main.c        ****     }
  66:main.c        **** }
  67:main.c        **** 
  68:main.c        **** 
  69:main.c        **** int main()
  70:main.c        **** {
 209              		.loc 1 70 0
 210              		.cfi_startproc
 211              		@ args = 0, pretend = 0, frame = 16
 212              		@ frame_needed = 0, uses_anonymous_args = 0
 213 0000 10B5     		push	{r4, lr}
ARM GAS  C:\Users\aashi\AppData\Local\Temp\cceVs3mG.s 			page 6


 214              		.cfi_def_cfa_offset 8
 215              		.cfi_offset 4, -8
 216              		.cfi_offset 14, -4
 217 0002 84B0     		sub	sp, sp, #16
 218              		.cfi_def_cfa_offset 24
  71:main.c        ****     /* Variable to store ADC result */
  72:main.c        ****     uint32 Output;
  73:main.c        ****     /* Variable to store UART received character */
  74:main.c        ****     uint8 Ch;
  75:main.c        **** 
  76:main.c        ****     /* Transmit Buffer */
  77:main.c        ****     char TransmitBuffer[TRANSMIT_BUFFER_SIZE];
  78:main.c        ****     
  79:main.c        ****     ADC_SAR_1_Start();
 219              		.loc 1 79 0
 220 0004 FFF7FEFF 		bl	ADC_SAR_1_Start
 221              	.LVL8:
  80:main.c        ****     UART_1_Start();
 222              		.loc 1 80 0
 223 0008 FFF7FEFF 		bl	UART_1_Start
 224              	.LVL9:
  81:main.c        ****     
  82:main.c        ****     /* Start the ADC conversion */
  83:main.c        ****     ADC_SAR_1_StartConvert();
 225              		.loc 1 83 0
 226 000c FFF7FEFF 		bl	ADC_SAR_1_StartConvert
 227              	.LVL10:
  84:main.c        ****     
  85:main.c        ****     /* Send message to verify COM port is connected properly */
  86:main.c        ****     UART_1_PutString("COM Port Open");
 228              		.loc 1 86 0
 229 0010 6B48     		ldr	r0, .L34
 230 0012 FFF7FEFF 		bl	UART_1_PutString
 231              	.LVL11:
  87:main.c        ****     
  88:main.c        ****     PWM_1_Start(); //thumb
 232              		.loc 1 88 0
 233 0016 FFF7FEFF 		bl	PWM_1_Start
 234              	.LVL12:
  89:main.c        ****     PWM_2_Start(); //index
 235              		.loc 1 89 0
 236 001a FFF7FEFF 		bl	PWM_2_Start
 237              	.LVL13:
  90:main.c        ****     PWM_3_Start(); // middle
 238              		.loc 1 90 0
 239 001e FFF7FEFF 		bl	PWM_3_Start
 240              	.LVL14:
  91:main.c        ****     PWM_4_Start(); //ring
 241              		.loc 1 91 0
 242 0022 FFF7FEFF 		bl	PWM_4_Start
 243              	.LVL15:
  92:main.c        ****     PWM_5_Start(); //pinky
 244              		.loc 1 92 0
 245 0026 FFF7FEFF 		bl	PWM_5_Start
 246              	.LVL16:
  93:main.c        ****     
  94:main.c        ****     int clenchValL = 2200;
ARM GAS  C:\Users\aashi\AppData\Local\Temp\cceVs3mG.s 			page 7


  95:main.c        ****     int clenchValR = 1100;
  96:main.c        ****     int neutralVal = 1600;
  97:main.c        ****     
  98:main.c        ****     CYGlobalIntEnable;
 247              		.loc 1 98 0
 248              		.syntax unified
 249              	@ 98 "main.c" 1
 250 002a 62B6     		CPSIE   i
 251              	@ 0 "" 2
  99:main.c        ****     Timer_1_Start();
 252              		.loc 1 99 0
 253              		.thumb
 254              		.syntax unified
 255 002c FFF7FEFF 		bl	Timer_1_Start
 256              	.LVL17:
 100:main.c        ****     Timer_2_Start();
 257              		.loc 1 100 0
 258 0030 FFF7FEFF 		bl	Timer_2_Start
 259              	.LVL18:
 101:main.c        ****     ISR_VERIFY_StartEx(VERIFY_ISR);
 260              		.loc 1 101 0
 261 0034 6348     		ldr	r0, .L34+4
 262 0036 FFF7FEFF 		bl	ISR_VERIFY_StartEx
 263              	.LVL19:
 102:main.c        ****     ISR_SAMPLE_StartEx(SAMPLE_ISR);
 264              		.loc 1 102 0
 265 003a 6348     		ldr	r0, .L34+8
 266 003c FFF7FEFF 		bl	ISR_SAMPLE_StartEx
 267              	.LVL20:
 268              	.L19:
 103:main.c        **** 
 104:main.c        ****     for(;;)
 105:main.c        ****     {        
 106:main.c        ****         /* Non-blocking call to get the latest data recieved  */
 107:main.c        ****         Ch = UART_1_GetChar();
 269              		.loc 1 107 0
 270 0040 FFF7FEFF 		bl	UART_1_GetChar
 271              	.LVL21:
 108:main.c        ****         
 109:main.c        ****         /* Set flags based on UART command */
 110:main.c        ****         switch(Ch)
 272              		.loc 1 110 0
 273 0044 4138     		subs	r0, r0, #65
 274              	.LVL22:
 275 0046 3728     		cmp	r0, #55
 276 0048 34D8     		bhi	.L20
 277 004a DFE800F0 		tbb	[pc, r0]
 278              	.L22:
 279 004e 28       		.byte	(.L21-.L22)/2
 280 004f 2C       		.byte	(.L23-.L22)/2
 281 0050 1C       		.byte	(.L24-.L22)/2
 282 0051 33       		.byte	(.L20-.L22)/2
 283 0052 33       		.byte	(.L20-.L22)/2
 284 0053 33       		.byte	(.L20-.L22)/2
 285 0054 33       		.byte	(.L20-.L22)/2
 286 0055 33       		.byte	(.L20-.L22)/2
 287 0056 33       		.byte	(.L20-.L22)/2
ARM GAS  C:\Users\aashi\AppData\Local\Temp\cceVs3mG.s 			page 8


 288 0057 33       		.byte	(.L20-.L22)/2
 289 0058 33       		.byte	(.L20-.L22)/2
 290 0059 33       		.byte	(.L20-.L22)/2
 291 005a 33       		.byte	(.L20-.L22)/2
 292 005b 30       		.byte	(.L25-.L22)/2
 293 005c 33       		.byte	(.L20-.L22)/2
 294 005d 33       		.byte	(.L20-.L22)/2
 295 005e 33       		.byte	(.L20-.L22)/2
 296 005f 33       		.byte	(.L20-.L22)/2
 297 0060 20       		.byte	(.L26-.L22)/2
 298 0061 33       		.byte	(.L20-.L22)/2
 299 0062 33       		.byte	(.L20-.L22)/2
 300 0063 33       		.byte	(.L20-.L22)/2
 301 0064 33       		.byte	(.L20-.L22)/2
 302 0065 24       		.byte	(.L27-.L22)/2
 303 0066 33       		.byte	(.L20-.L22)/2
 304 0067 33       		.byte	(.L20-.L22)/2
 305 0068 33       		.byte	(.L20-.L22)/2
 306 0069 33       		.byte	(.L20-.L22)/2
 307 006a 33       		.byte	(.L20-.L22)/2
 308 006b 33       		.byte	(.L20-.L22)/2
 309 006c 33       		.byte	(.L20-.L22)/2
 310 006d 33       		.byte	(.L20-.L22)/2
 311 006e 28       		.byte	(.L21-.L22)/2
 312 006f 2C       		.byte	(.L23-.L22)/2
 313 0070 1C       		.byte	(.L24-.L22)/2
 314 0071 33       		.byte	(.L20-.L22)/2
 315 0072 33       		.byte	(.L20-.L22)/2
 316 0073 33       		.byte	(.L20-.L22)/2
 317 0074 33       		.byte	(.L20-.L22)/2
 318 0075 33       		.byte	(.L20-.L22)/2
 319 0076 33       		.byte	(.L20-.L22)/2
 320 0077 33       		.byte	(.L20-.L22)/2
 321 0078 33       		.byte	(.L20-.L22)/2
 322 0079 33       		.byte	(.L20-.L22)/2
 323 007a 33       		.byte	(.L20-.L22)/2
 324 007b 30       		.byte	(.L25-.L22)/2
 325 007c 33       		.byte	(.L20-.L22)/2
 326 007d 33       		.byte	(.L20-.L22)/2
 327 007e 33       		.byte	(.L20-.L22)/2
 328 007f 33       		.byte	(.L20-.L22)/2
 329 0080 20       		.byte	(.L26-.L22)/2
 330 0081 33       		.byte	(.L20-.L22)/2
 331 0082 33       		.byte	(.L20-.L22)/2
 332 0083 33       		.byte	(.L20-.L22)/2
 333 0084 33       		.byte	(.L20-.L22)/2
 334 0085 24       		.byte	(.L27-.L22)/2
 335              		.p2align 1
 336              	.L24:
 111:main.c        ****         {
 112:main.c        ****             case 0:
 113:main.c        ****                 /* No new data was recieved */
 114:main.c        ****                 break;
 115:main.c        ****             case 'C':
 116:main.c        ****             case 'c':
 117:main.c        ****                 SendSingleByte = TRUE;
 337              		.loc 1 117 0
ARM GAS  C:\Users\aashi\AppData\Local\Temp\cceVs3mG.s 			page 9


 338 0086 0122     		movs	r2, #1
 339 0088 504B     		ldr	r3, .L34+12
 340 008a 1A73     		strb	r2, [r3, #12]
 118:main.c        ****                 break;
 341              		.loc 1 118 0
 342 008c 12E0     		b	.L20
 343              	.L26:
 119:main.c        ****             case 'S':
 120:main.c        ****             case 's':                
 121:main.c        ****                 ContinuouslySendData = TRUE;
 344              		.loc 1 121 0
 345 008e 0122     		movs	r2, #1
 346 0090 4E4B     		ldr	r3, .L34+12
 347 0092 1A70     		strb	r2, [r3]
 122:main.c        ****                 break;
 348              		.loc 1 122 0
 349 0094 0EE0     		b	.L20
 350              	.L27:
 123:main.c        ****             case 'X':
 124:main.c        ****             case 'x':
 125:main.c        ****                 ContinuouslySendData = FALSE;
 351              		.loc 1 125 0
 352 0096 0022     		movs	r2, #0
 353 0098 4C4B     		ldr	r3, .L34+12
 354 009a 1A70     		strb	r2, [r3]
 126:main.c        ****                 break;
 355              		.loc 1 126 0
 356 009c 0AE0     		b	.L20
 357              	.L21:
 127:main.c        ****             case 'A':
 128:main.c        ****             case 'a': //clench sequence
 129:main.c        ****                 clenchGesture = TRUE;
 358              		.loc 1 129 0
 359 009e 0122     		movs	r2, #1
 360 00a0 4A4B     		ldr	r3, .L34+12
 361 00a2 5A72     		strb	r2, [r3, #9]
 130:main.c        ****                 break;
 362              		.loc 1 130 0
 363 00a4 06E0     		b	.L20
 364              	.L23:
 131:main.c        ****             case 'B': //spidey sequence
 132:main.c        ****             case 'b':
 133:main.c        ****                 spideyGesture = TRUE;
 365              		.loc 1 133 0
 366 00a6 0122     		movs	r2, #1
 367 00a8 484B     		ldr	r3, .L34+12
 368 00aa 9A72     		strb	r2, [r3, #10]
 134:main.c        ****                 break;
 369              		.loc 1 134 0
 370 00ac 02E0     		b	.L20
 371              	.L25:
 135:main.c        ****             case 'N': //neutral sequence
 136:main.c        ****             case 'n':
 137:main.c        ****                 neutralGesture = TRUE;
 372              		.loc 1 137 0
 373 00ae 0122     		movs	r2, #1
 374 00b0 464B     		ldr	r3, .L34+12
ARM GAS  C:\Users\aashi\AppData\Local\Temp\cceVs3mG.s 			page 10


 375 00b2 DA72     		strb	r2, [r3, #11]
 376              	.L20:
 138:main.c        ****                 break;
 139:main.c        ****             default:
 140:main.c        ****                 /* Place error handling code here */
 141:main.c        ****                 break;    
 142:main.c        ****         }
 143:main.c        ****         
 144:main.c        ****         if(ADC_SAR_1_IsEndConversion(ADC_SAR_1_RETURN_STATUS))
 377              		.loc 1 144 0
 378 00b4 0120     		movs	r0, #1
 379 00b6 FFF7FEFF 		bl	ADC_SAR_1_IsEndConversion
 380              	.LVL23:
 381 00ba B8B1     		cbz	r0, .L28
 145:main.c        ****         {
 146:main.c        ****             CyDelay(100);
 382              		.loc 1 146 0
 383 00bc 6420     		movs	r0, #100
 384 00be FFF7FEFF 		bl	CyDelay
 385              	.LVL24:
 147:main.c        ****             Output = ADC_SAR_1_GetResult16();
 386              		.loc 1 147 0
 387 00c2 FFF7FEFF 		bl	ADC_SAR_1_GetResult16
 388              	.LVL25:
 148:main.c        ****             
 149:main.c        ****             /* Send data based on last UART command */
 150:main.c        ****             if(SendSingleByte || ContinuouslySendData)
 389              		.loc 1 150 0
 390 00c6 414B     		ldr	r3, .L34+12
 391 00c8 1B7B     		ldrb	r3, [r3, #12]	@ zero_extendqisi2
 392 00ca 13B9     		cbnz	r3, .L29
 393              		.loc 1 150 0 is_stmt 0 discriminator 1
 394 00cc 3F4B     		ldr	r3, .L34+12
 395 00ce 1B78     		ldrb	r3, [r3]	@ zero_extendqisi2
 396 00d0 63B1     		cbz	r3, .L28
 397              	.L29:
 151:main.c        ****             {
 152:main.c        ****                 /* Format ADC result for transmition */
 153:main.c        ****                 sprintf(TransmitBuffer, "%lu mV\r\n", Output);
 398              		.loc 1 153 0 is_stmt 1
 399 00d2 0246     		mov	r2, r0
 400 00d4 3E49     		ldr	r1, .L34+16
 401 00d6 6846     		mov	r0, sp
 402              	.LVL26:
 403 00d8 FFF7FEFF 		bl	sprintf
 404              	.LVL27:
 154:main.c        ****                 /* Send out the data */
 155:main.c        ****                 UART_1_PutString(TransmitBuffer);
 405              		.loc 1 155 0
 406 00dc 6846     		mov	r0, sp
 407 00de FFF7FEFF 		bl	UART_1_PutString
 408              	.LVL28:
 156:main.c        ****                 UART_1_GetByte();
 409              		.loc 1 156 0
 410 00e2 FFF7FEFF 		bl	UART_1_GetByte
 411              	.LVL29:
 157:main.c        ****                 /* Reset the send once flag */
ARM GAS  C:\Users\aashi\AppData\Local\Temp\cceVs3mG.s 			page 11


 158:main.c        ****                 SendSingleByte = FALSE;
 412              		.loc 1 158 0
 413 00e6 0022     		movs	r2, #0
 414 00e8 384B     		ldr	r3, .L34+12
 415 00ea 1A73     		strb	r2, [r3, #12]
 416              	.L28:
 159:main.c        ****             }      
 160:main.c        ****         }
 161:main.c        ****         if(clenchGesture == TRUE){
 417              		.loc 1 161 0
 418 00ec 374B     		ldr	r3, .L34+12
 419 00ee 5B7A     		ldrb	r3, [r3, #9]	@ zero_extendqisi2
 420 00f0 012B     		cmp	r3, #1
 421 00f2 1ED1     		bne	.L30
 162:main.c        ****             sigGesture = TRUE;
 422              		.loc 1 162 0
 423 00f4 354C     		ldr	r4, .L34+12
 424 00f6 2372     		strb	r3, [r4, #8]
 163:main.c        ****             UART_1_PutString("Clenching...\r\n");            
 425              		.loc 1 163 0
 426 00f8 3648     		ldr	r0, .L34+20
 427 00fa FFF7FEFF 		bl	UART_1_PutString
 428              	.LVL30:
 164:main.c        ****             PWM_1_WriteCompare(clenchValL); //thumb
 429              		.loc 1 164 0
 430 00fe 40F69800 		movw	r0, #2200
 431 0102 FFF7FEFF 		bl	PWM_1_WriteCompare
 432              	.LVL31:
 165:main.c        ****             PWM_2_WriteCompare(clenchValL); //index
 433              		.loc 1 165 0
 434 0106 40F69800 		movw	r0, #2200
 435 010a FFF7FEFF 		bl	PWM_2_WriteCompare
 436              	.LVL32:
 166:main.c        ****             PWM_3_WriteCompare(clenchValL); //middle
 437              		.loc 1 166 0
 438 010e 40F69800 		movw	r0, #2200
 439 0112 FFF7FEFF 		bl	PWM_3_WriteCompare
 440              	.LVL33:
 167:main.c        ****             PWM_4_WriteCompare(clenchValR); //ring
 441              		.loc 1 167 0
 442 0116 40F24C40 		movw	r0, #1100
 443 011a FFF7FEFF 		bl	PWM_4_WriteCompare
 444              	.LVL34:
 168:main.c        ****             PWM_5_WriteCompare(clenchValR); //pinky
 445              		.loc 1 168 0
 446 011e 40F24C40 		movw	r0, #1100
 447 0122 FFF7FEFF 		bl	PWM_5_WriteCompare
 448              	.LVL35:
 169:main.c        ****             UART_1_PutString("Clench complete!\r\n");
 449              		.loc 1 169 0
 450 0126 2C48     		ldr	r0, .L34+24
 451 0128 FFF7FEFF 		bl	UART_1_PutString
 452              	.LVL36:
 170:main.c        ****             clenchGesture = FALSE;      
 453              		.loc 1 170 0
 454 012c 0023     		movs	r3, #0
 455 012e 6372     		strb	r3, [r4, #9]
ARM GAS  C:\Users\aashi\AppData\Local\Temp\cceVs3mG.s 			page 12


 456 0130 86E7     		b	.L19
 457              	.L30:
 171:main.c        ****         }
 172:main.c        ****         else if(spideyGesture == TRUE){
 458              		.loc 1 172 0
 459 0132 264B     		ldr	r3, .L34+12
 460 0134 9B7A     		ldrb	r3, [r3, #10]	@ zero_extendqisi2
 461 0136 012B     		cmp	r3, #1
 462 0138 1ED1     		bne	.L32
 173:main.c        ****             sigGesture = TRUE;
 463              		.loc 1 173 0
 464 013a 244C     		ldr	r4, .L34+12
 465 013c 2372     		strb	r3, [r4, #8]
 174:main.c        ****             UART_1_PutString("Spidey...\r\n");       
 466              		.loc 1 174 0
 467 013e 2748     		ldr	r0, .L34+28
 468 0140 FFF7FEFF 		bl	UART_1_PutString
 469              	.LVL37:
 175:main.c        ****             PWM_1_WriteCompare(neutralVal); //thumb
 470              		.loc 1 175 0
 471 0144 4FF4C860 		mov	r0, #1600
 472 0148 FFF7FEFF 		bl	PWM_1_WriteCompare
 473              	.LVL38:
 176:main.c        ****             PWM_2_WriteCompare(neutralVal); //index
 474              		.loc 1 176 0
 475 014c 4FF4C860 		mov	r0, #1600
 476 0150 FFF7FEFF 		bl	PWM_2_WriteCompare
 477              	.LVL39:
 177:main.c        ****             PWM_3_WriteCompare(clenchValL); //middle
 478              		.loc 1 177 0
 479 0154 40F69800 		movw	r0, #2200
 480 0158 FFF7FEFF 		bl	PWM_3_WriteCompare
 481              	.LVL40:
 178:main.c        ****             PWM_4_WriteCompare(clenchValR); //ring
 482              		.loc 1 178 0
 483 015c 40F24C40 		movw	r0, #1100
 484 0160 FFF7FEFF 		bl	PWM_4_WriteCompare
 485              	.LVL41:
 179:main.c        ****             PWM_5_WriteCompare(neutralVal); //pinky
 486              		.loc 1 179 0
 487 0164 4FF4C860 		mov	r0, #1600
 488 0168 FFF7FEFF 		bl	PWM_5_WriteCompare
 489              	.LVL42:
 180:main.c        ****             UART_1_PutString("Spidey complete!\r\n");
 490              		.loc 1 180 0
 491 016c 1C48     		ldr	r0, .L34+32
 492 016e FFF7FEFF 		bl	UART_1_PutString
 493              	.LVL43:
 181:main.c        ****             spideyGesture = FALSE;        
 494              		.loc 1 181 0
 495 0172 0023     		movs	r3, #0
 496 0174 A372     		strb	r3, [r4, #10]
 497 0176 63E7     		b	.L19
 498              	.L32:
 182:main.c        ****         }
 183:main.c        ****         else if (neutralGesture == TRUE){
 499              		.loc 1 183 0
ARM GAS  C:\Users\aashi\AppData\Local\Temp\cceVs3mG.s 			page 13


 500 0178 144B     		ldr	r3, .L34+12
 501 017a DB7A     		ldrb	r3, [r3, #11]	@ zero_extendqisi2
 502 017c 012B     		cmp	r3, #1
 503 017e 7FF45FAF 		bne	.L19
 184:main.c        ****             UART_1_PutString("Neutral...\r\n");
 504              		.loc 1 184 0
 505 0182 1848     		ldr	r0, .L34+36
 506 0184 FFF7FEFF 		bl	UART_1_PutString
 507              	.LVL44:
 185:main.c        ****             PWM_1_WriteCompare(neutralVal); //thumb
 508              		.loc 1 185 0
 509 0188 4FF4C860 		mov	r0, #1600
 510 018c FFF7FEFF 		bl	PWM_1_WriteCompare
 511              	.LVL45:
 186:main.c        ****             PWM_2_WriteCompare(neutralVal); //index
 512              		.loc 1 186 0
 513 0190 4FF4C860 		mov	r0, #1600
 514 0194 FFF7FEFF 		bl	PWM_2_WriteCompare
 515              	.LVL46:
 187:main.c        ****             PWM_3_WriteCompare(neutralVal); //middle
 516              		.loc 1 187 0
 517 0198 4FF4C860 		mov	r0, #1600
 518 019c FFF7FEFF 		bl	PWM_3_WriteCompare
 519              	.LVL47:
 188:main.c        ****             PWM_4_WriteCompare(neutralVal); //ring
 520              		.loc 1 188 0
 521 01a0 4FF4C860 		mov	r0, #1600
 522 01a4 FFF7FEFF 		bl	PWM_4_WriteCompare
 523              	.LVL48:
 189:main.c        ****             PWM_5_WriteCompare(neutralVal); //pinky
 524              		.loc 1 189 0
 525 01a8 4FF4C860 		mov	r0, #1600
 526 01ac FFF7FEFF 		bl	PWM_5_WriteCompare
 527              	.LVL49:
 190:main.c        ****             UART_1_PutString("Neutral complete!\r\n");
 528              		.loc 1 190 0
 529 01b0 0D48     		ldr	r0, .L34+40
 530 01b2 FFF7FEFF 		bl	UART_1_PutString
 531              	.LVL50:
 191:main.c        ****             neutralGesture = FALSE;
 532              		.loc 1 191 0
 533 01b6 0022     		movs	r2, #0
 534 01b8 044B     		ldr	r3, .L34+12
 535 01ba DA72     		strb	r2, [r3, #11]
 536 01bc 40E7     		b	.L19
 537              	.L35:
 538 01be 00BF     		.align	2
 539              	.L34:
 540 01c0 1C000000 		.word	.LC2
 541 01c4 00000000 		.word	VERIFY_ISR
 542 01c8 00000000 		.word	SAMPLE_ISR
 543 01cc 00000000 		.word	.LANCHOR0
 544 01d0 2C000000 		.word	.LC3
 545 01d4 38000000 		.word	.LC4
 546 01d8 48000000 		.word	.LC5
 547 01dc 5C000000 		.word	.LC6
 548 01e0 68000000 		.word	.LC7
ARM GAS  C:\Users\aashi\AppData\Local\Temp\cceVs3mG.s 			page 14


 549 01e4 7C000000 		.word	.LC8
 550 01e8 8C000000 		.word	.LC9
 551              		.cfi_endproc
 552              	.LFE66:
 553              		.size	main, .-main
 554              		.global	ms_count
 555              		.global	sigGesture
 556              		.global	spideyGesture
 557              		.global	neutralGesture
 558              		.global	clenchGesture
 559              		.global	SendSingleByte
 560              		.global	ContinuouslySendData
 561              		.section	.rodata.str1.4,"aMS",%progbits,1
 562              		.align	2
 563              	.LC0:
 564 0000 494E5445 		.ascii	"INTERRUPT\015\012\000"
 564      52525550 
 564      540D0A00 
 565              	.LC1:
 566 000c 4849544C 		.ascii	"HITL VERIFY\015\012\000"
 566      20564552 
 566      4946590D 
 566      0A00
 567 001a 0000     		.space	2
 568              	.LC2:
 569 001c 434F4D20 		.ascii	"COM Port Open\000"
 569      506F7274 
 569      204F7065 
 569      6E00
 570 002a 0000     		.space	2
 571              	.LC3:
 572 002c 256C7520 		.ascii	"%lu mV\015\012\000"
 572      6D560D0A 
 572      00
 573 0035 000000   		.space	3
 574              	.LC4:
 575 0038 436C656E 		.ascii	"Clenching...\015\012\000"
 575      6368696E 
 575      672E2E2E 
 575      0D0A00
 576 0047 00       		.space	1
 577              	.LC5:
 578 0048 436C656E 		.ascii	"Clench complete!\015\012\000"
 578      63682063 
 578      6F6D706C 
 578      65746521 
 578      0D0A00
 579 005b 00       		.space	1
 580              	.LC6:
 581 005c 53706964 		.ascii	"Spidey...\015\012\000"
 581      65792E2E 
 581      2E0D0A00 
 582              	.LC7:
 583 0068 53706964 		.ascii	"Spidey complete!\015\012\000"
 583      65792063 
 583      6F6D706C 
 583      65746521 
ARM GAS  C:\Users\aashi\AppData\Local\Temp\cceVs3mG.s 			page 15


 583      0D0A00
 584 007b 00       		.space	1
 585              	.LC8:
 586 007c 4E657574 		.ascii	"Neutral...\015\012\000"
 586      72616C2E 
 586      2E2E0D0A 
 586      00
 587 0089 000000   		.space	3
 588              	.LC9:
 589 008c 4E657574 		.ascii	"Neutral complete!\015\012\000"
 589      72616C20 
 589      636F6D70 
 589      6C657465 
 589      210D0A00 
 590              		.bss
 591              		.align	2
 592              		.set	.LANCHOR0,. + 0
 593              		.type	ContinuouslySendData, %object
 594              		.size	ContinuouslySendData, 1
 595              	ContinuouslySendData:
 596 0000 00       		.space	1
 597 0001 000000   		.space	3
 598              		.type	ms_count, %object
 599              		.size	ms_count, 4
 600              	ms_count:
 601 0004 00000000 		.space	4
 602              		.type	sigGesture, %object
 603              		.size	sigGesture, 1
 604              	sigGesture:
 605 0008 00       		.space	1
 606              		.type	clenchGesture, %object
 607              		.size	clenchGesture, 1
 608              	clenchGesture:
 609 0009 00       		.space	1
 610              		.type	spideyGesture, %object
 611              		.size	spideyGesture, 1
 612              	spideyGesture:
 613 000a 00       		.space	1
 614              		.type	neutralGesture, %object
 615              		.size	neutralGesture, 1
 616              	neutralGesture:
 617 000b 00       		.space	1
 618              		.type	SendSingleByte, %object
 619              		.size	SendSingleByte, 1
 620              	SendSingleByte:
 621 000c 00       		.space	1
 622              		.text
 623              	.Letext0:
 624              		.file 2 "c:\\program files (x86)\\cypress\\psoc creator\\4.2\\psoc creator\\import\\gnu\\arm\\5.4.
 625              		.file 3 "c:\\program files (x86)\\cypress\\psoc creator\\4.2\\psoc creator\\import\\gnu\\arm\\5.4.
 626              		.file 4 "Generated_Source\\PSoC5/cytypes.h"
 627              		.file 5 "c:\\program files (x86)\\cypress\\psoc creator\\4.2\\psoc creator\\import\\gnu\\arm\\5.4.
 628              		.file 6 "Generated_Source\\PSoC5/core_cm3.h"
 629              		.file 7 "Generated_Source\\PSoC5/CyLib.h"
 630              		.file 8 "Generated_Source\\PSoC5/UART_1.h"
 631              		.file 9 "Generated_Source\\PSoC5/ADC_SAR_1.h"
 632              		.file 10 "Generated_Source\\PSoC5/PWM_1.h"
ARM GAS  C:\Users\aashi\AppData\Local\Temp\cceVs3mG.s 			page 16


 633              		.file 11 "Generated_Source\\PSoC5/PWM_2.h"
 634              		.file 12 "Generated_Source\\PSoC5/PWM_3.h"
 635              		.file 13 "Generated_Source\\PSoC5/PWM_4.h"
 636              		.file 14 "Generated_Source\\PSoC5/PWM_5.h"
 637              		.file 15 "Generated_Source\\PSoC5/Timer_1.h"
 638              		.file 16 "Generated_Source\\PSoC5/Timer_2.h"
 639              		.file 17 "Generated_Source\\PSoC5/ISR_VERIFY.h"
 640              		.file 18 "Generated_Source\\PSoC5/ISR_SAMPLE.h"
 641              		.file 19 "c:\\program files (x86)\\cypress\\psoc creator\\4.2\\psoc creator\\import\\gnu\\arm\\5.4